target datalayout = "e-m:e-p270:32:32-p271:32:32-p272:64:64-i64:64-i128:128-f80:128-n8:16:32:64-S128"
target triple = "x86_64-pc-linux-gnu"

%struct.topoinfo_tree = type { i32, ptr }
%struct.topo_info = type { i16, i32, ptr, ptr, ptr }

@.str.12 = private unnamed_addr constant [16 x i8] c"topology_tree.c\00", align 1
@__func__.topology_p_topology_unpack = private unnamed_addr constant [27 x i8] c"topology_p_topology_unpack\00", align 1

; Function Attrs: nounwind uwtable
define dso_local i32 @topology_p_topology_free(ptr noundef %0) #0 {
  %2 = alloca ptr, align 8
  %3 = alloca i32, align 4
  %4 = alloca ptr, align 8
  store ptr %0, ptr %2, align 8
  call void @llvm.lifetime.start.p0(i64 4, ptr %3) #10
  store i32 0, ptr %3, align 4
  call void @llvm.lifetime.start.p0(i64 8, ptr %4) #10
  %5 = load ptr, ptr %2, align 8
  store ptr %5, ptr %4, align 8
  %6 = load ptr, ptr %4, align 8
  %7 = icmp ne ptr %6, null
  br i1 %7, label %8, label %49

8:                                                ; preds = %1
  %9 = load ptr, ptr %4, align 8
  %10 = getelementptr inbounds nuw %struct.topoinfo_tree, ptr %9, i32 0, i32 1
  %11 = load ptr, ptr %10, align 8
  %12 = icmp ne ptr %11, null
  br i1 %12, label %13, label %48

13:                                               ; preds = %8
  store i32 0, ptr %3, align 4
  br label %14

14:                                               ; preds = %42, %13
  %15 = load i32, ptr %3, align 4
  %16 = load ptr, ptr %4, align 8
  %17 = getelementptr inbounds nuw %struct.topoinfo_tree, ptr %16, i32 0, i32 0
  %18 = load i32, ptr %17, align 8
  %19 = icmp ult i32 %15, %18
  br i1 %19, label %20, label %45

20:                                               ; preds = %14
  %21 = load ptr, ptr %4, align 8
  %22 = getelementptr inbounds nuw %struct.topoinfo_tree, ptr %21, i32 0, i32 1
  %23 = load ptr, ptr %22, align 8
  %24 = load i32, ptr %3, align 4
  %25 = sext i32 %24 to i64
  %26 = getelementptr inbounds %struct.topo_info, ptr %23, i64 %25
  %27 = getelementptr inbounds nuw %struct.topo_info, ptr %26, i32 0, i32 2
  call void @slurm_xfree(ptr noundef %27)
  %28 = load ptr, ptr %4, align 8
  %29 = getelementptr inbounds nuw %struct.topoinfo_tree, ptr %28, i32 0, i32 1
  %30 = load ptr, ptr %29, align 8
  %31 = load i32, ptr %3, align 4
  %32 = sext i32 %31 to i64
  %33 = getelementptr inbounds %struct.topo_info, ptr %30, i64 %32
  %34 = getelementptr inbounds nuw %struct.topo_info, ptr %33, i32 0, i32 3
  call void @slurm_xfree(ptr noundef %34)
  %35 = load ptr, ptr %4, align 8
  %36 = getelementptr inbounds nuw %struct.topoinfo_tree, ptr %35, i32 0, i32 1
  %37 = load ptr, ptr %36, align 8
  %38 = load i32, ptr %3, align 4
  %39 = sext i32 %38 to i64
  %40 = getelementptr inbounds %struct.topo_info, ptr %37, i64 %39
  %41 = getelementptr inbounds nuw %struct.topo_info, ptr %40, i32 0, i32 4
  call void @slurm_xfree(ptr noundef %41)
  br label %42

42:                                               ; preds = %20
  %43 = load i32, ptr %3, align 4
  %44 = add nsw i32 %43, 1
  store i32 %44, ptr %3, align 4
  br label %14, !llvm.loop !24

45:                                               ; preds = %14
  %46 = load ptr, ptr %4, align 8
  %47 = getelementptr inbounds nuw %struct.topoinfo_tree, ptr %46, i32 0, i32 1
  call void @slurm_xfree(ptr noundef %47)
  br label %48

48:                                               ; preds = %45, %8
  call void @slurm_xfree(ptr noundef %4)
  br label %49

49:                                               ; preds = %48, %1
  call void @llvm.lifetime.end.p0(i64 8, ptr %4) #10
  call void @llvm.lifetime.end.p0(i64 4, ptr %3) #10
  ret i32 0
}

; Function Attrs: nounwind uwtable
define dso_local i32 @topology_p_topology_unpack(ptr noundef %0, ptr noundef %1, i16 noundef zeroext %2) #0 {
  %4 = alloca i32, align 4
  %5 = alloca ptr, align 8
  %6 = alloca ptr, align 8
  %7 = alloca i16, align 2
  %8 = alloca i32, align 4
  %9 = alloca ptr, align 8
  %10 = alloca i64, align 8
  %11 = alloca i64, align 8
  %12 = alloca i32, align 4
  %13 = alloca i32, align 4
  %14 = alloca i32, align 4
  %15 = alloca i32, align 4
  store ptr %0, ptr %5, align 8
  store ptr %1, ptr %6, align 8
  store i16 %2, ptr %7, align 2
  call void @llvm.lifetime.start.p0(i64 4, ptr %8) #10
  store i32 0, ptr %8, align 4
  call void @llvm.lifetime.start.p0(i64 8, ptr %9) #10
  %16 = call ptr @slurm_xcalloc(i64 noundef 1, i64 noundef 16, i1 noundef zeroext true, i1 noundef zeroext false, ptr noundef @.str.12, i32 noundef 686, ptr noundef @__func__.topology_p_topology_unpack)
  store ptr %16, ptr %9, align 8
  %17 = load ptr, ptr %9, align 8
  %18 = load ptr, ptr %5, align 8
  store ptr %17, ptr %18, align 8
  br label %19

19:                                               ; preds = %3
  %20 = load ptr, ptr %9, align 8
  %21 = getelementptr inbounds nuw %struct.topoinfo_tree, ptr %20, i32 0, i32 0
  %22 = load ptr, ptr %6, align 8
  %23 = call i32 @slurm_unpack32(ptr noundef %21, ptr noundef %22)
  %24 = icmp ne i32 %23, 0
  br i1 %24, label %25, label %26

25:                                               ; preds = %19
  br label %152

26:                                               ; preds = %19
  br label %27

27:                                               ; preds = %26
  br label %28

28:                                               ; preds = %27
  br label %29

29:                                               ; preds = %28
  call void @llvm.lifetime.start.p0(i64 8, ptr %10) #10
  %30 = load ptr, ptr %9, align 8
  %31 = getelementptr inbounds nuw %struct.topoinfo_tree, ptr %30, i32 0, i32 0
  %32 = load i32, ptr %31, align 8
  %33 = zext i32 %32 to i64
  store i64 %33, ptr %10, align 8
  call void @llvm.lifetime.start.p0(i64 8, ptr %11) #10
  store i64 32, ptr %11, align 8
  %34 = load i64, ptr %10, align 8
  %35 = icmp ne i64 %34, 0
  br i1 %35, label %36, label %39

36:                                               ; preds = %29
  %37 = load i64, ptr %11, align 8
  %38 = icmp ne i64 %37, 0
  br i1 %38, label %42, label %39

39:                                               ; preds = %36, %29
  %40 = load ptr, ptr %9, align 8
  %41 = getelementptr inbounds nuw %struct.topoinfo_tree, ptr %40, i32 0, i32 1
  store ptr null, ptr %41, align 8
  br label %51

42:                                               ; preds = %36
  %43 = load i64, ptr %10, align 8
  %44 = load i64, ptr %11, align 8
  %45 = call ptr @slurm_xcalloc(i64 noundef %43, i64 noundef %44, i1 noundef zeroext true, i1 noundef zeroext true, ptr noundef @.str.12, i32 noundef 691, ptr noundef @__func__.topology_p_topology_unpack)
  %46 = load ptr, ptr %9, align 8
  %47 = getelementptr inbounds nuw %struct.topoinfo_tree, ptr %46, i32 0, i32 1
  store ptr %45, ptr %47, align 8
  %48 = icmp ne ptr %45, null
  br i1 %48, label %50, label %49

49:                                               ; preds = %42
  store i32 4, ptr %12, align 4
  br label %52

50:                                               ; preds = %42
  br label %51

51:                                               ; preds = %50, %39
  store i32 0, ptr %12, align 4
  br label %52

52:                                               ; preds = %49, %51
  call void @llvm.lifetime.end.p0(i64 8, ptr %11) #10
  call void @llvm.lifetime.end.p0(i64 8, ptr %10) #10
  %53 = load i32, ptr %12, align 4
  switch i32 %53, label %156 [
    i32 0, label %54
    i32 4, label %152
  ]

54:                                               ; preds = %52
  br label %55

55:                                               ; preds = %54
  br label %56

56:                                               ; preds = %55
  store i32 0, ptr %8, align 4
  br label %57

57:                                               ; preds = %148, %56
  %58 = load i32, ptr %8, align 4
  %59 = load ptr, ptr %9, align 8
  %60 = getelementptr inbounds nuw %struct.topoinfo_tree, ptr %59, i32 0, i32 0
  %61 = load i32, ptr %60, align 8
  %62 = icmp ult i32 %58, %61
  br i1 %62, label %63, label %151

63:                                               ; preds = %57
  br label %64

64:                                               ; preds = %63
  %65 = load ptr, ptr %9, align 8
  %66 = getelementptr inbounds nuw %struct.topoinfo_tree, ptr %65, i32 0, i32 1
  %67 = load ptr, ptr %66, align 8
  %68 = load i32, ptr %8, align 4
  %69 = sext i32 %68 to i64
  %70 = getelementptr inbounds %struct.topo_info, ptr %67, i64 %69
  %71 = getelementptr inbounds nuw %struct.topo_info, ptr %70, i32 0, i32 0
  %72 = load ptr, ptr %6, align 8
  %73 = call i32 @slurm_unpack16(ptr noundef %71, ptr noundef %72)
  %74 = icmp ne i32 %73, 0
  br i1 %74, label %75, label %76

75:                                               ; preds = %64
  br label %152

76:                                               ; preds = %64
  br label %77

77:                                               ; preds = %76
  br label %78

78:                                               ; preds = %77
  br label %79

79:                                               ; preds = %78
  %80 = load ptr, ptr %9, align 8
  %81 = getelementptr inbounds nuw %struct.topoinfo_tree, ptr %80, i32 0, i32 1
  %82 = load ptr, ptr %81, align 8
  %83 = load i32, ptr %8, align 4
  %84 = sext i32 %83 to i64
  %85 = getelementptr inbounds %struct.topo_info, ptr %82, i64 %84
  %86 = getelementptr inbounds nuw %struct.topo_info, ptr %85, i32 0, i32 1
  %87 = load ptr, ptr %6, align 8
  %88 = call i32 @slurm_unpack32(ptr noundef %86, ptr noundef %87)
  %89 = icmp ne i32 %88, 0
  br i1 %89, label %90, label %91

90:                                               ; preds = %79
  br label %152

91:                                               ; preds = %79
  br label %92

92:                                               ; preds = %91
  br label %93

93:                                               ; preds = %92
  br label %94

94:                                               ; preds = %93
  call void @llvm.lifetime.start.p0(i64 4, ptr %13) #10
  %95 = load ptr, ptr %9, align 8
  %96 = getelementptr inbounds nuw %struct.topoinfo_tree, ptr %95, i32 0, i32 1
  %97 = load ptr, ptr %96, align 8
  %98 = load i32, ptr %8, align 4
  %99 = sext i32 %98 to i64
  %100 = getelementptr inbounds %struct.topo_info, ptr %97, i64 %99
  %101 = getelementptr inbounds nuw %struct.topo_info, ptr %100, i32 0, i32 2
  %102 = load ptr, ptr %6, align 8
  %103 = call i32 @slurm_unpackstr_xmalloc_chooser(ptr noundef %101, ptr noundef %13, ptr noundef %102)
  %104 = icmp ne i32 %103, 0
  br i1 %104, label %105, label %106

105:                                              ; preds = %94
  store i32 4, ptr %12, align 4
  br label %107

106:                                              ; preds = %94
  store i32 0, ptr %12, align 4
  br label %107

107:                                              ; preds = %105, %106
  call void @llvm.lifetime.end.p0(i64 4, ptr %13) #10
  %108 = load i32, ptr %12, align 4
  switch i32 %108, label %156 [
    i32 0, label %109
    i32 4, label %152
  ]

109:                                              ; preds = %107
  br label %110

110:                                              ; preds = %109
  br label %111

111:                                              ; preds = %110
  br label %112

112:                                              ; preds = %111
  call void @llvm.lifetime.start.p0(i64 4, ptr %14) #10
  %113 = load ptr, ptr %9, align 8
  %114 = getelementptr inbounds nuw %struct.topoinfo_tree, ptr %113, i32 0, i32 1
  %115 = load ptr, ptr %114, align 8
  %116 = load i32, ptr %8, align 4
  %117 = sext i32 %116 to i64
  %118 = getelementptr inbounds %struct.topo_info, ptr %115, i64 %117
  %119 = getelementptr inbounds nuw %struct.topo_info, ptr %118, i32 0, i32 3
  %120 = load ptr, ptr %6, align 8
  %121 = call i32 @slurm_unpackstr_xmalloc_chooser(ptr noundef %119, ptr noundef %14, ptr noundef %120)
  %122 = icmp ne i32 %121, 0
  br i1 %122, label %123, label %124

123:                                              ; preds = %112
  store i32 4, ptr %12, align 4
  br label %125

124:                                              ; preds = %112
  store i32 0, ptr %12, align 4
  br label %125

125:                                              ; preds = %123, %124
  call void @llvm.lifetime.end.p0(i64 4, ptr %14) #10
  %126 = load i32, ptr %12, align 4
  switch i32 %126, label %156 [
    i32 0, label %127
    i32 4, label %152
  ]

127:                                              ; preds = %125
  br label %128

128:                                              ; preds = %127
  br label %129

129:                                              ; preds = %128
  br label %130

130:                                              ; preds = %129
  call void @llvm.lifetime.start.p0(i64 4, ptr %15) #10
  %131 = load ptr, ptr %9, align 8
  %132 = getelementptr inbounds nuw %struct.topoinfo_tree, ptr %131, i32 0, i32 1
  %133 = load ptr, ptr %132, align 8
  %134 = load i32, ptr %8, align 4
  %135 = sext i32 %134 to i64
  %136 = getelementptr inbounds %struct.topo_info, ptr %133, i64 %135
  %137 = getelementptr inbounds nuw %struct.topo_info, ptr %136, i32 0, i32 4
  %138 = load ptr, ptr %6, align 8
  %139 = call i32 @slurm_unpackstr_xmalloc_chooser(ptr noundef %137, ptr noundef %15, ptr noundef %138)
  %140 = icmp ne i32 %139, 0
  br i1 %140, label %141, label %142

141:                                              ; preds = %130
  store i32 4, ptr %12, align 4
  br label %143

142:                                              ; preds = %130
  store i32 0, ptr %12, align 4
  br label %143

143:                                              ; preds = %141, %142
  call void @llvm.lifetime.end.p0(i64 4, ptr %15) #10
  %144 = load i32, ptr %12, align 4
  switch i32 %144, label %156 [
    i32 0, label %145
    i32 4, label %152
  ]

145:                                              ; preds = %143
  br label %146

146:                                              ; preds = %145
  br label %147

147:                                              ; preds = %146
  br label %148

148:                                              ; preds = %147
  %149 = load i32, ptr %8, align 4
  %150 = add nsw i32 %149, 1
  store i32 %150, ptr %8, align 4
  br label %57, !llvm.loop !30

151:                                              ; preds = %57
  store i32 0, ptr %4, align 4
  store i32 1, ptr %12, align 4
  br label %156

152:                                              ; preds = %143, %125, %107, %52, %90, %75, %25
  %153 = load ptr, ptr %9, align 8
  %154 = call i32 @topology_p_topology_free(ptr noundef %153)
  %155 = load ptr, ptr %5, align 8
  store ptr null, ptr %155, align 8
  store i32 -1, ptr %4, align 4
  store i32 1, ptr %12, align 4
  br label %156

156:                                              ; preds = %152, %151, %143, %125, %107, %52
  call void @llvm.lifetime.end.p0(i64 8, ptr %9) #10
  call void @llvm.lifetime.end.p0(i64 4, ptr %8) #10
  %157 = load i32, ptr %4, align 4
  ret i32 %157
}