; Function Attrs: nounwind uwtable
define dso_local range(i32 -1, 1) i32 @topology_p_topology_unpack(ptr noundef writeonly captures(none) initializes((0, 8)) %0, ptr noundef %1, i16 noundef zeroext %2) local_unnamed_addr #0 {
  %4 = alloca ptr, align 8
  %5 = alloca i32, align 4
  %6 = alloca i32, align 4
  %7 = alloca i32, align 4
  %8 = tail call ptr @slurm_xcalloc(i64 noundef 1, i64 noundef 16, i1 noundef zeroext true, i1 noundef zeroext false, ptr noundef nonnull @.str.12, i32 noundef 686, ptr noundef nonnull @__func__.topology_p_topology_unpack) #13
  store ptr %8, ptr %0, align 8
  %9 = tail call i32 @slurm_unpack32(ptr noundef %8, ptr noundef %1) #13
  %.not = icmp eq i32 %9, 0
  br i1 %.not, label %10, label %44

10:                                               ; preds = %3
  %11 = load i32, ptr %8, align 8
  %.not39 = icmp eq i32 %11, 0
  br i1 %.not39, label %.thread, label %13

.thread:                                          ; preds = %10
  %12 = getelementptr inbounds nuw i8, ptr %8, i64 8
  store ptr null, ptr %12, align 8
  br label %.loopexit

13:                                               ; preds = %10
  %14 = zext i32 %11 to i64
  %15 = tail call ptr @slurm_xcalloc(i64 noundef %14, i64 noundef 32, i1 noundef zeroext true, i1 noundef zeroext true, ptr noundef nonnull @.str.12, i32 noundef 691, ptr noundef nonnull @__func__.topology_p_topology_unpack) #13
  %16 = getelementptr inbounds nuw i8, ptr %8, i64 8
  store ptr %15, ptr %16, align 8
  %.not40 = icmp eq ptr %15, null
  br i1 %.not40, label %.thread51, label %17

17:                                               ; preds = %13
  %.pre = load i32, ptr %8, align 8
  %18 = icmp eq i32 %.pre, 0
  br i1 %18, label %.loopexit, label %.lr.ph

.lr.ph:                                           ; preds = %17
  %19 = getelementptr inbounds nuw i8, ptr %8, i64 8
  br label %24

20:                                               ; preds = %40
  %indvars.iv.next = add nuw nsw i64 %indvars.iv, 1
  %21 = load i32, ptr %8, align 8
  %22 = zext i32 %21 to i64
  %23 = icmp samesign ult i64 %indvars.iv.next, %22
  br i1 %23, label %24, label %.loopexit, !llvm.loop !31

24:                                               ; preds = %.lr.ph, %20
  %indvars.iv = phi i64 [ 0, %.lr.ph ], [ %indvars.iv.next, %20 ]
  %25 = load ptr, ptr %19, align 8
  %26 = getelementptr inbounds nuw %struct.topo_info, ptr %25, i64 %indvars.iv
  %27 = call i32 @slurm_unpack16(ptr noundef %26, ptr noundef %1) #13
  %.not41 = icmp eq i32 %27, 0
  br i1 %.not41, label %28, label %.thread51

28:                                               ; preds = %24
  %29 = load ptr, ptr %19, align 8
  %30 = getelementptr inbounds nuw %struct.topo_info, ptr %29, i64 %indvars.iv, i32 1
  %31 = call i32 @slurm_unpack32(ptr noundef nonnull %30, ptr noundef %1) #13
  %.not42 = icmp eq i32 %31, 0
  br i1 %.not42, label %32, label %.thread51

32:                                               ; preds = %28
  call void @llvm.lifetime.start.p0(i64 4, ptr nonnull %5) #13
  %33 = load ptr, ptr %19, align 8
  %34 = getelementptr inbounds nuw %struct.topo_info, ptr %33, i64 %indvars.iv, i32 2
  %35 = call i32 @slurm_unpackstr_xmalloc_chooser(ptr noundef nonnull %34, ptr noundef nonnull %5, ptr noundef %1) #13
  %.not43 = icmp eq i32 %35, 0
  call void @llvm.lifetime.end.p0(i64 4, ptr nonnull %5) #13
  br i1 %.not43, label %36, label %.thread51

36:                                               ; preds = %32
  call void @llvm.lifetime.start.p0(i64 4, ptr nonnull %6) #13
  %37 = load ptr, ptr %19, align 8
  %38 = getelementptr inbounds nuw %struct.topo_info, ptr %37, i64 %indvars.iv, i32 3
  %39 = call i32 @slurm_unpackstr_xmalloc_chooser(ptr noundef nonnull %38, ptr noundef nonnull %6, ptr noundef %1) #13
  %.not44 = icmp eq i32 %39, 0
  call void @llvm.lifetime.end.p0(i64 4, ptr nonnull %6) #13
  br i1 %.not44, label %40, label %.thread51

40:                                               ; preds = %36
  call void @llvm.lifetime.start.p0(i64 4, ptr nonnull %7) #13
  %41 = load ptr, ptr %19, align 8
  %42 = getelementptr inbounds nuw %struct.topo_info, ptr %41, i64 %indvars.iv, i32 4
  %43 = call i32 @slurm_unpackstr_xmalloc_chooser(ptr noundef nonnull %42, ptr noundef nonnull %7, ptr noundef %1) #13
  %.not45 = icmp eq i32 %43, 0
  call void @llvm.lifetime.end.p0(i64 4, ptr nonnull %7) #13
  br i1 %.not45, label %20, label %.thread51

.thread51:                                        ; preds = %40, %36, %32, %28, %24, %13
  call void @llvm.lifetime.start.p0(i64 8, ptr nonnull %4) #13
  store ptr %8, ptr %4, align 8
  br label %45

44:                                               ; preds = %3
  call void @llvm.lifetime.start.p0(i64 8, ptr nonnull %4) #13
  store ptr %8, ptr %4, align 8
  %.not.i = icmp eq ptr %8, null
  br i1 %.not.i, label %topology_p_topology_free.exit, label %45

45:                                               ; preds = %.thread51, %44
  %46 = getelementptr inbounds nuw i8, ptr %8, i64 8
  %47 = load ptr, ptr %46, align 8
  %.not6.i = icmp eq ptr %47, null
  br i1 %.not6.i, label %58, label %.preheader.i

.preheader.i:                                     ; preds = %45
  %48 = load i32, ptr %8, align 8
  %.not8.i = icmp eq i32 %48, 0
  br i1 %.not8.i, label %._crit_edge.i, label %.lr.ph.i

.lr.ph.i:                                         ; preds = %.preheader.i, %.lr.ph.i
  %indvars.iv.i = phi i64 [ %indvars.iv.next.i, %.lr.ph.i ], [ 0, %.preheader.i ]
  %49 = load ptr, ptr %46, align 8
  %50 = getelementptr inbounds nuw %struct.topo_info, ptr %49, i64 %indvars.iv.i, i32 2
  call void @slurm_xfree(ptr noundef nonnull %50) #13
  %51 = load ptr, ptr %46, align 8
  %52 = getelementptr inbounds nuw %struct.topo_info, ptr %51, i64 %indvars.iv.i, i32 3
  call void @slurm_xfree(ptr noundef nonnull %52) #13
  %53 = load ptr, ptr %46, align 8
  %54 = getelementptr inbounds nuw %struct.topo_info, ptr %53, i64 %indvars.iv.i, i32 4
  call void @slurm_xfree(ptr noundef nonnull %54) #13
  %indvars.iv.next.i = add nuw nsw i64 %indvars.iv.i, 1
  %55 = load i32, ptr %8, align 8
  %56 = zext i32 %55 to i64
  %57 = icmp samesign ult i64 %indvars.iv.next.i, %56
  br i1 %57, label %.lr.ph.i, label %._crit_edge.i, !llvm.loop !25

._crit_edge.i:                                    ; preds = %.lr.ph.i, %.preheader.i
  call void @slurm_xfree(ptr noundef nonnull %46) #13
  br label %58

58:                                               ; preds = %._crit_edge.i, %45
  call void @slurm_xfree(ptr noundef nonnull %4) #13
  br label %topology_p_topology_free.exit

topology_p_topology_free.exit:                    ; preds = %44, %58
  call void @llvm.lifetime.end.p0(i64 8, ptr nonnull %4) #13
  store ptr null, ptr %0, align 8
  br label %.loopexit

.loopexit:                                        ; preds = %20, %.thread, %17, %topology_p_topology_free.exit
  %.036 = phi i32 [ -1, %topology_p_topology_free.exit ], [ 0, %17 ], [ 0, %.thread ], [ 0, %20 ]
  ret i32 %.036
}